target datalayout = "e-m:e-p270:32:32-p271:32:32-p272:64:64-i64:64-i128:128-f80:128-n8:16:32:64-S128"
target triple = "x86_64-pc-linux-gnu"

%struct.Vec_Int_t_ = type { i32, i32, ptr }
%struct.Abc_Ntk_t_ = type { i32, i32, ptr, ptr, ptr, ptr, ptr, ptr, ptr, ptr, ptr, ptr, ptr, [11 x i32], i32, i32, i32, i32, ptr, i32, ptr, ptr, i32, i32, i32, double, i32, %struct.Vec_Int_t_, ptr, ptr, ptr, ptr, ptr, float, i32, ptr, ptr, ptr, ptr, ptr, ptr, ptr, ptr, ptr, ptr, ptr, ptr, ptr, ptr, ptr, ptr, ptr, ptr, ptr, ptr, ptr, ptr }
%struct.Vec_Ptr_t_ = type { i32, i32, ptr }

; Function Attrs: inlinehint nounwind uwtable
define internal i32 @Vec_PtrSize(ptr noundef %0) #2 {
  %2 = alloca ptr, align 8
  store ptr %0, ptr %2, align 8, !tbaa !8
  %3 = load ptr, ptr %2, align 8, !tbaa !8
  %4 = getelementptr inbounds nuw %struct.Vec_Ptr_t_, ptr %3, i32 0, i32 1
  %5 = load i32, ptr %4, align 4, !tbaa !40
  ret i32 %5
}

; Function Attrs: inlinehint nounwind uwtable
define internal i32 @Abc_NtkCoNum(ptr noundef %0) #2 {
  %2 = alloca ptr, align 8
  store ptr %0, ptr %2, align 8, !tbaa !32
  %3 = load ptr, ptr %2, align 8, !tbaa !32
  %4 = getelementptr inbounds nuw %struct.Abc_Ntk_t_, ptr %3, i32 0, i32 9
  %5 = load ptr, ptr %4, align 8, !tbaa !48
  %6 = call i32 @Vec_PtrSize(ptr noundef %5)
  ret i32 %6
}

; Function Attrs: nounwind uwtable
define i32 @Abc_NtkFunctionalIsoInt(ptr noundef %0, i32 noundef %1, i32 noundef %2, i32 noundef %3) #0 {
  %5 = alloca i32, align 4
  %6 = alloca ptr, align 8
  %7 = alloca i32, align 4
  %8 = alloca i32, align 4
  %9 = alloca i32, align 4
  %10 = alloca ptr, align 8
  %11 = alloca i32, align 4
  %12 = alloca i32, align 4
  store ptr %0, ptr %6, align 8, !tbaa !32
  store i32 %1, ptr %7, align 4, !tbaa !16
  store i32 %2, ptr %8, align 4, !tbaa !16
  store i32 %3, ptr %9, align 4, !tbaa !16
  call void @llvm.lifetime.start.p0(i64 8, ptr %10) #11
  call void @llvm.lifetime.start.p0(i64 4, ptr %11) #11
  %13 = load i32, ptr %7, align 4, !tbaa !16
  %14 = icmp slt i32 %13, 0
  br i1 %14, label %20, label %15

15:                                               ; preds = %4
  %16 = load i32, ptr %7, align 4, !tbaa !16
  %17 = load ptr, ptr %6, align 8, !tbaa !32
  %18 = call i32 @Abc_NtkCoNum(ptr noundef %17)
  %19 = icmp sge i32 %16, %18
  br i1 %19, label %20, label %21

20:                                               ; preds = %15, %4
  store i32 0, ptr %5, align 4
  store i32 1, ptr %12, align 4
  br label %46

21:                                               ; preds = %15
  %22 = load i32, ptr %8, align 4, !tbaa !16
  %23 = icmp slt i32 %22, 0
  br i1 %23, label %29, label %24

24:                                               ; preds = %21
  %25 = load i32, ptr %8, align 4, !tbaa !16
  %26 = load ptr, ptr %6, align 8, !tbaa !32
  %27 = call i32 @Abc_NtkCoNum(ptr noundef %26)
  %28 = icmp sge i32 %25, %27
  br i1 %28, label %29, label %30

29:                                               ; preds = %24, %21
  store i32 0, ptr %5, align 4
  store i32 1, ptr %12, align 4
  br label %46

30:                                               ; preds = %24
  %31 = load ptr, ptr %6, align 8, !tbaa !32
  %32 = load i32, ptr %7, align 4, !tbaa !16
  %33 = load i32, ptr %8, align 4, !tbaa !16
  %34 = load i32, ptr %9, align 4, !tbaa !16
  %35 = call ptr @Abc_NtkFunctionalIsoGia(ptr noundef %31, i32 noundef %32, i32 noundef %33, i32 noundef %34)
  store ptr %35, ptr %10, align 8, !tbaa !112
  %36 = load ptr, ptr %10, align 8, !tbaa !112
  %37 = icmp eq ptr %36, null
  br i1 %37, label %38, label %39

38:                                               ; preds = %30
  store i32 0, ptr %5, align 4
  store i32 1, ptr %12, align 4
  br label %46

39:                                               ; preds = %30
  %40 = load ptr, ptr %10, align 8, !tbaa !112
  %41 = call i32 @Cec_ManVerifySimple(ptr noundef %40)
  store i32 %41, ptr %11, align 4, !tbaa !16
  %42 = load ptr, ptr %10, align 8, !tbaa !112
  call void @Gia_ManStop(ptr noundef %42)
  %43 = load i32, ptr %11, align 4, !tbaa !16
  %44 = icmp eq i32 %43, 1
  %45 = zext i1 %44 to i32
  store i32 %45, ptr %5, align 4
  store i32 1, ptr %12, align 4
  br label %46

46:                                               ; preds = %39, %38, %29, %20
  call void @llvm.lifetime.end.p0(i64 4, ptr %11) #11
  call void @llvm.lifetime.end.p0(i64 8, ptr %10) #11
  %47 = load i32, ptr %5, align 4
  ret i32 %47
}