; Function Attrs: nounwind uwtable
define range(i32 0, 2) i32 @Abc_NtkFunctionalIsoInt(ptr noundef %0, i32 noundef %1, i32 noundef %2, i32 noundef %3) local_unnamed_addr #0 {
  %5 = icmp slt i32 %1, 0
  br i1 %5, label %17, label %6

6:                                                ; preds = %4
  %7 = getelementptr i8, ptr %0, i64 64
  %.val18 = load ptr, ptr %7, align 8, !tbaa !48
  %8 = getelementptr i8, ptr %.val18, i64 4
  %.val18.val = load i32, ptr %8, align 4, !tbaa !41
  %.not = icmp slt i32 %1, %.val18.val
  %9 = icmp sgt i32 %2, -1
  %or.cond.not21 = and i1 %9, %.not
  %.not17 = icmp samesign ult i32 %2, %.val18.val
  %or.cond19 = select i1 %or.cond.not21, i1 %.not17, i1 false
  br i1 %or.cond19, label %10, label %17

10:                                               ; preds = %6
  %11 = tail call ptr @Abc_NtkFunctionalIsoGia(ptr noundef nonnull %0, i32 noundef %1, i32 noundef %2, i32 noundef %3)
  %12 = icmp eq ptr %11, null
  br i1 %12, label %17, label %13

13:                                               ; preds = %10
  %14 = tail call i32 @Cec_ManVerifySimple(ptr noundef nonnull %11) #23
  tail call void @Gia_ManStop(ptr noundef nonnull %11) #23
  %15 = icmp eq i32 %14, 1
  %16 = zext i1 %15 to i32
  br label %17

17:                                               ; preds = %10, %4, %6, %13
  %.0 = phi i32 [ %16, %13 ], [ 0, %6 ], [ 0, %4 ], [ 0, %10 ]
  ret i32 %.0
}